(lp0
S'A97-1019'
p1
aS'D09-1022'
p2
aS'D13-1138'
p3
aS'D14-1184'
p4
aS'E09-1083'
p5
aS'E09-2007'
p6
aS'E12-1058'
p7
aS'P07-2007'
p8
aS'P10-1049'
p9
aS'P12-1017'
p10
aS'P13-1032'
p11
aS'P13-1060'
p12
aS'P13-1154'
p13
aS'P14-2123'
p14
aS'P92-1024'
p15
aS'P92-1047'
p16
aS'P95-1032'
p17
aS'P97-1048'
p18
aS'W00-0205'
p19
aS'W00-1204'
p20
aS'W06-0501'
p21
aS'W08-2110'
p22
aS'W09-0438'
p23
aS'W09-3401'
p24
aS'W11-2037'
p25
aS'W11-2211'
p26
aS'W12-3137'
p27
aS'W12-3155'
p28
aS'W13-0804'
p29
aS'W13-4020'
p30
aS'W14-1115'
p31
aS'W14-2609'
p32
aS'W14-3317'
p33
a.